target datalayout = "e-m:e-p270:32:32-p271:32:32-p272:64:64-i64:64-i128:128-f80:128-n8:16:32:64-S128"
target triple = "x86_64-pc-linux-gnu"

%struct.PJconsts = type { ptr, ptr, ptr, ptr, ptr, ptr, ptr, ptr, ptr, ptr, ptr, ptr, i32, ptr, ptr, ptr, ptr, ptr, ptr, ptr, ptr, double, double, double, double, double, double, double, double, double, double, double, double, double, double, double, double, double, double, double, double, double, double, i32, i32, i32, i32, i32, i32, i32, i32, i32, i32, i32, ptr, ptr, ptr, ptr, ptr, ptr, double, double, double, double, double, double, double, double, double, double, double, i32, [7 x double], i32, ptr, ptr, double, double, i32, [4 x i8], %"class.std::shared_ptr", i8, double, i8, %"class.std::__cxx11::basic_string", %"class.std::__cxx11::basic_string", %"class.std::__cxx11::basic_string", i8, %"class.std::vector", i32, %"class.std::vector.3", i32, i8, i8, i8, ptr }
%"class.std::shared_ptr" = type { %"class.std::__shared_ptr" }
%"class.std::__shared_ptr" = type { ptr, %"class.std::__shared_count" }
%"class.std::__shared_count" = type { ptr }
%"class.std::__cxx11::basic_string" = type { %"struct.std::__cxx11::basic_string<char>::_Alloc_hider", i64, %union.anon }
%"struct.std::__cxx11::basic_string<char>::_Alloc_hider" = type { ptr }
%union.anon = type { i64, [8 x i8] }
%"class.std::vector" = type { %"struct.std::_Vector_base" }
%"struct.std::_Vector_base" = type { %"struct.std::_Vector_base<osgeo::proj::operation::GridDescription, std::allocator<osgeo::proj::operation::GridDescription>>::_Vector_impl" }
%"struct.std::_Vector_base<osgeo::proj::operation::GridDescription, std::allocator<osgeo::proj::operation::GridDescription>>::_Vector_impl" = type { %"struct.std::_Vector_base<osgeo::proj::operation::GridDescription, std::allocator<osgeo::proj::operation::GridDescription>>::_Vector_impl_data" }
%"struct.std::_Vector_base<osgeo::proj::operation::GridDescription, std::allocator<osgeo::proj::operation::GridDescription>>::_Vector_impl_data" = type { ptr, ptr, ptr }
%"class.std::vector.3" = type { %"struct.std::_Vector_base.4" }
%"struct.std::_Vector_base.4" = type { %"struct.std::_Vector_base<PJCoordOperation, std::allocator<PJCoordOperation>>::_Vector_impl" }
%"struct.std::_Vector_base<PJCoordOperation, std::allocator<PJCoordOperation>>::_Vector_impl" = type { %"struct.std::_Vector_base<PJCoordOperation, std::allocator<PJCoordOperation>>::_Vector_impl_data" }
%"struct.std::_Vector_base<PJCoordOperation, std::allocator<PJCoordOperation>>::_Vector_impl_data" = type { ptr, ptr, ptr }
%"struct.(anonymous namespace)::pj_gn_sinu_data" = type { ptr, double, double, double, double }
%struct.PJ_LP = type { double, double }
%struct.PJ_XY = type { double, double }

; Function Attrs: mustprogress uwtable
define internal { double, double } @_ZL17gn_sinu_s_forward5PJ_LPP8PJconsts(double %0, double %1, ptr noundef %2) #0 {
  %4 = alloca %struct.PJ_XY, align 8
  %5 = alloca %struct.PJ_LP, align 8
  %6 = alloca ptr, align 8
  %7 = alloca ptr, align 8
  %8 = alloca i32, align 4
  %9 = alloca double, align 8
  %10 = alloca double, align 8
  %11 = alloca i32, align 4
  %12 = getelementptr inbounds nuw { double, double }, ptr %5, i32 0, i32 0
  store double %0, ptr %12, align 8
  %13 = getelementptr inbounds nuw { double, double }, ptr %5, i32 0, i32 1
  store double %1, ptr %13, align 8
  store ptr %2, ptr %6, align 8, !tbaa !3
  call void @llvm.memset.p0.i64(ptr align 8 %4, i8 0, i64 16, i1 false)
  call void @llvm.lifetime.start.p0(i64 8, ptr %7) #8
  %14 = load ptr, ptr %6, align 8, !tbaa !3
  %15 = getelementptr inbounds nuw %struct.PJconsts, ptr %14, i32 0, i32 11
  %16 = load ptr, ptr %15, align 8, !tbaa !43
  store ptr %16, ptr %7, align 8, !tbaa !41
  %17 = load ptr, ptr %7, align 8, !tbaa !41
  %18 = getelementptr inbounds nuw %"struct.(anonymous namespace)::pj_gn_sinu_data", ptr %17, i32 0, i32 1
  %19 = load double, ptr %18, align 8, !tbaa !53
  %20 = fcmp oeq double %19, 0.000000e+00
  br i1 %20, label %21, label %44

21:                                               ; preds = %3
  %22 = load ptr, ptr %7, align 8, !tbaa !41
  %23 = getelementptr inbounds nuw %"struct.(anonymous namespace)::pj_gn_sinu_data", ptr %22, i32 0, i32 2
  %24 = load double, ptr %23, align 8, !tbaa !52
  %25 = fcmp une double %24, 1.000000e+00
  br i1 %25, label %26, label %38

26:                                               ; preds = %21
  %27 = load ptr, ptr %6, align 8, !tbaa !3
  %28 = getelementptr inbounds nuw %struct.PJconsts, ptr %27, i32 0, i32 0
  %29 = load ptr, ptr %28, align 8, !tbaa !64
  %30 = load ptr, ptr %7, align 8, !tbaa !41
  %31 = getelementptr inbounds nuw %"struct.(anonymous namespace)::pj_gn_sinu_data", ptr %30, i32 0, i32 2
  %32 = load double, ptr %31, align 8, !tbaa !52
  %33 = getelementptr inbounds nuw %struct.PJ_LP, ptr %5, i32 0, i32 1
  %34 = load double, ptr %33, align 8, !tbaa !57
  %35 = call double @sin(double noundef %34) #8, !tbaa !54
  %36 = fmul double %32, %35
  %37 = call noundef double @_Z5aasinP6pj_ctxd(ptr noundef %29, double noundef %36)
  br label %41

38:                                               ; preds = %21
  %39 = getelementptr inbounds nuw %struct.PJ_LP, ptr %5, i32 0, i32 1
  %40 = load double, ptr %39, align 8, !tbaa !57
  br label %41

41:                                               ; preds = %38, %26
  %42 = phi double [ %37, %26 ], [ %40, %38 ]
  %43 = getelementptr inbounds nuw %struct.PJ_LP, ptr %5, i32 0, i32 1
  store double %42, ptr %43, align 8, !tbaa !57
  br label %100

44:                                               ; preds = %3
  call void @llvm.lifetime.start.p0(i64 4, ptr %8) #8
  call void @llvm.lifetime.start.p0(i64 8, ptr %9) #8
  %45 = load ptr, ptr %7, align 8, !tbaa !41
  %46 = getelementptr inbounds nuw %"struct.(anonymous namespace)::pj_gn_sinu_data", ptr %45, i32 0, i32 2
  %47 = load double, ptr %46, align 8, !tbaa !52
  %48 = getelementptr inbounds nuw %struct.PJ_LP, ptr %5, i32 0, i32 1
  %49 = load double, ptr %48, align 8, !tbaa !57
  %50 = call double @sin(double noundef %49) #8, !tbaa !54
  %51 = fmul double %47, %50
  store double %51, ptr %9, align 8, !tbaa !59
  store i32 8, ptr %8, align 4, !tbaa !54
  br label %52

52:                                               ; preds = %87, %44
  %53 = load i32, ptr %8, align 4, !tbaa !54
  %54 = icmp ne i32 %53, 0
  br i1 %54, label %55, label %90

55:                                               ; preds = %52
  call void @llvm.lifetime.start.p0(i64 8, ptr %10) #8
  %56 = load ptr, ptr %7, align 8, !tbaa !41
  %57 = getelementptr inbounds nuw %"struct.(anonymous namespace)::pj_gn_sinu_data", ptr %56, i32 0, i32 1
  %58 = load double, ptr %57, align 8, !tbaa !53
  %59 = getelementptr inbounds nuw %struct.PJ_LP, ptr %5, i32 0, i32 1
  %60 = load double, ptr %59, align 8, !tbaa !57
  %61 = getelementptr inbounds nuw %struct.PJ_LP, ptr %5, i32 0, i32 1
  %62 = load double, ptr %61, align 8, !tbaa !57
  %63 = call double @sin(double noundef %62) #8, !tbaa !54
  %64 = call double @llvm.fmuladd.f64(double %58, double %60, double %63)
  %65 = load double, ptr %9, align 8, !tbaa !59
  %66 = fsub double %64, %65
  %67 = load ptr, ptr %7, align 8, !tbaa !41
  %68 = getelementptr inbounds nuw %"struct.(anonymous namespace)::pj_gn_sinu_data", ptr %67, i32 0, i32 1
  %69 = load double, ptr %68, align 8, !tbaa !53
  %70 = getelementptr inbounds nuw %struct.PJ_LP, ptr %5, i32 0, i32 1
  %71 = load double, ptr %70, align 8, !tbaa !57
  %72 = call double @cos(double noundef %71) #8, !tbaa !54
  %73 = fadd double %69, %72
  %74 = fdiv double %66, %73
  store double %74, ptr %10, align 8, !tbaa !59
  %75 = load double, ptr %10, align 8, !tbaa !59
  %76 = getelementptr inbounds nuw %struct.PJ_LP, ptr %5, i32 0, i32 1
  %77 = load double, ptr %76, align 8, !tbaa !57
  %78 = fsub double %77, %75
  store double %78, ptr %76, align 8, !tbaa !57
  %79 = load double, ptr %10, align 8, !tbaa !59
  %80 = call double @llvm.fabs.f64(double %79)
  %81 = fcmp olt double %80, 0x3E7AD7F29ABCAF48
  br i1 %81, label %82, label %83

82:                                               ; preds = %55
  store i32 2, ptr %11, align 4
  br label %84

83:                                               ; preds = %55
  store i32 0, ptr %11, align 4
  br label %84

84:                                               ; preds = %83, %82
  call void @llvm.lifetime.end.p0(i64 8, ptr %10) #8
  %85 = load i32, ptr %11, align 4
  switch i32 %85, label %125 [
    i32 0, label %86
    i32 2, label %90
  ]

86:                                               ; preds = %84
  br label %87

87:                                               ; preds = %86
  %88 = load i32, ptr %8, align 4, !tbaa !54
  %89 = add nsw i32 %88, -1
  store i32 %89, ptr %8, align 4, !tbaa !54
  br label %52, !llvm.loop !67

90:                                               ; preds = %84, %52
  %91 = load i32, ptr %8, align 4, !tbaa !54
  %92 = icmp ne i32 %91, 0
  br i1 %92, label %96, label %93

93:                                               ; preds = %90
  %94 = load ptr, ptr %6, align 8, !tbaa !3
  %95 = call i32 @proj_errno_set(ptr noundef %94, i32 noundef 2050)
  store i32 1, ptr %11, align 4
  br label %97

96:                                               ; preds = %90
  store i32 0, ptr %11, align 4
  br label %97

97:                                               ; preds = %96, %93
  call void @llvm.lifetime.end.p0(i64 8, ptr %9) #8
  call void @llvm.lifetime.end.p0(i64 4, ptr %8) #8
  %98 = load i32, ptr %11, align 4
  switch i32 %98, label %123 [
    i32 0, label %99
  ]

99:                                               ; preds = %97
  br label %100

100:                                              ; preds = %99, %41
  %101 = load ptr, ptr %7, align 8, !tbaa !41
  %102 = getelementptr inbounds nuw %"struct.(anonymous namespace)::pj_gn_sinu_data", ptr %101, i32 0, i32 3
  %103 = load double, ptr %102, align 8, !tbaa !63
  %104 = getelementptr inbounds nuw %struct.PJ_LP, ptr %5, i32 0, i32 0
  %105 = load double, ptr %104, align 8, !tbaa !61
  %106 = fmul double %103, %105
  %107 = load ptr, ptr %7, align 8, !tbaa !41
  %108 = getelementptr inbounds nuw %"struct.(anonymous namespace)::pj_gn_sinu_data", ptr %107, i32 0, i32 1
  %109 = load double, ptr %108, align 8, !tbaa !53
  %110 = getelementptr inbounds nuw %struct.PJ_LP, ptr %5, i32 0, i32 1
  %111 = load double, ptr %110, align 8, !tbaa !57
  %112 = call double @cos(double noundef %111) #8, !tbaa !54
  %113 = fadd double %109, %112
  %114 = fmul double %106, %113
  %115 = getelementptr inbounds nuw %struct.PJ_XY, ptr %4, i32 0, i32 0
  store double %114, ptr %115, align 8, !tbaa !60
  %116 = load ptr, ptr %7, align 8, !tbaa !41
  %117 = getelementptr inbounds nuw %"struct.(anonymous namespace)::pj_gn_sinu_data", ptr %116, i32 0, i32 4
  %118 = load double, ptr %117, align 8, !tbaa !62
  %119 = getelementptr inbounds nuw %struct.PJ_LP, ptr %5, i32 0, i32 1
  %120 = load double, ptr %119, align 8, !tbaa !57
  %121 = fmul double %118, %120
  %122 = getelementptr inbounds nuw %struct.PJ_XY, ptr %4, i32 0, i32 1
  store double %121, ptr %122, align 8, !tbaa !55
  store i32 1, ptr %11, align 4
  br label %123

123:                                              ; preds = %100, %97
  call void @llvm.lifetime.end.p0(i64 8, ptr %7) #8
  %124 = load { double, double }, ptr %4, align 8
  ret { double, double } %124

125:                                              ; preds = %84
  unreachable
}